(lp0
c__builtin__
set
p1
((ttp2
Rp3
ag1
((ttp4
Rp5
ag1
((I1
I2
I3
I4
I5
I6
I7
I8
I9
I10
I11
I12
I13
I14
I15
I16
I17
I18
I19
I20
I21
I22
I23
I24
I25
I26
I27
I28
I29
I30
I31
I32
I33
I34
I35
I36
I37
I38
I39
I40
I41
I42
I43
I44
I45
I46
I47
I48
I49
I50
I51
I52
I53
I54
I55
I56
I57
I58
I59
I60
I61
I62
I63
I64
I65
I66
I67
I68
I69
I70
I71
I72
I73
I74
I75
I76
I77
I78
I79
I80
I81
I82
I83
I84
I85
I86
I87
I88
I89
I90
I91
I92
I93
I94
I95
I96
I97
I98
I99
I100
I101
I102
I103
I104
I105
I106
I107
I108
I109
I110
I111
I112
I113
I114
I115
I116
I117
I118
I119
I120
I121
I122
I123
I124
I125
I126
I127
I128
I129
I130
I131
I132
I133
I134
I135
I136
I137
I138
I139
I140
I141
I142
I143
I144
I145
I146
I147
I148
I149
I150
I151
I152
I153
I154
I155
I156
I157
I158
I159
I160
I161
I162
I163
I164
I165
I166
I167
I168
I169
I170
I171
I172
I173
I174
I175
I176
I177
I178
I179
I180
I181
I182
I183
I184
I185
I186
I187
I188
I189
I190
I191
I192
I193
I194
I195
I196
I197
I198
I199
I200
I201
I202
I203
I204
I205
I206
I207
I208
I209
I210
I211
I212
I213
I214
I215
I216
I217
I218
I219
I220
I221
I222
I223
I224
I225
I226
I227
I228
I229
I230
I231
I232
I233
I234
I235
I236
I237
I238
I239
I240
I241
I242
I243
I244
I245
I246
I247
I248
I249
I250
I251
I252
I253
I254
I255
I256
I257
I258
I259
I260
I261
I262
I263
I264
I265
I266
I267
I268
I269
I270
I271
I272
I273
I274
I275
I276
I277
I278
I279
I280
I281
I282
I283
I284
I285
I286
I287
I288
I289
I290
I291
I292
I293
I294
I295
I296
I297
I298
I299
I300
I301
I302
I303
I304
I305
I306
I307
I308
I309
I310
I311
I312
I313
I314
I315
I316
I317
I318
I319
I320
I321
I322
I323
I324
I325
I326
I327
I328
I329
I330
I331
I332
I333
I334
I335
I336
I337
I338
I339
I340
I341
I342
I343
I344
I345
I346
I347
I348
I349
I350
I351
I352
I353
I354
I355
I356
I357
I358
I359
I360
I361
I362
I363
I364
I365
I366
I367
I368
I369
I370
I371
I372
I373
I374
I375
I376
I377
I378
I379
I380
I381
I382
I383
I384
I385
I386
I387
I388
I389
I390
I391
I392
I393
I394
I395
I396
I397
I398
I399
I400
I401
I402
I403
I404
I405
I406
I407
I408
I409
I410
I411
I412
I413
I414
I415
I416
I417
I418
I419
I420
I421
I422
I423
I424
I425
I426
I427
I428
I429
I430
I431
I432
I433
I434
I435
I436
I437
I438
I439
I440
I441
I442
I443
I444
I445
I446
I447
I448
I449
I450
I451
I452
I453
I454
I455
I456
I457
I458
I459
I460
I461
I462
I463
I464
I465
I466
I467
I468
I469
I470
I471
I472
I473
I474
I475
I476
I477
I478
I479
I480
I481
I482
I483
I484
I485
I486
I487
I488
I489
I490
I491
I492
I493
I494
I495
I496
I497
I498
I499
I500
I501
I502
I503
I504
I505
I506
I507
I508
I509
I510
I511
I512
I513
I514
I515
I516
I517
I518
I519
I520
I521
I522
I523
I524
I525
I526
I527
I528
I529
I530
I531
I532
I533
I534
I535
I536
I537
I538
I539
I540
I541
I542
I543
I544
I545
I546
I547
I548
I549
I550
I551
I552
I553
I554
I555
I556
I557
I558
I559
I560
I561
I562
I563
I564
I565
I566
I567
I568
I569
I570
I571
I572
I573
I574
I575
I576
I577
I578
I579
I580
I581
I582
I583
I584
I585
I586
I587
I588
I589
I590
I591
I592
I593
I594
I595
I596
I597
I598
I599
I600
I601
I602
I603
I604
I605
I606
I607
I608
I609
I610
I611
I612
I613
I614
I615
I616
I617
I618
I619
I620
I621
I622
I623
I624
I625
I626
I627
I628
I629
I630
I631
I632
I633
I634
I635
I636
I637
I638
I639
I640
I641
I642
I643
I644
I645
I646
I647
I648
I649
I650
I651
I652
I653
I654
I655
I656
I657
I658
I659
I660
I661
I662
I663
I664
I665
I666
I667
I668
I669
I670
I671
I672
I673
I674
I675
I676
I677
I678
I679
I680
I681
I682
I683
I684
I685
I686
I687
I688
I689
I690
I691
I692
I693
I694
I695
I696
I697
I698
I699
I700
I701
I702
I703
I704
I705
I706
I707
I708
I709
I710
I711
I712
I713
I714
I715
I716
I717
I718
I719
I720
I721
I722
I723
I724
I725
I726
I727
I728
I729
I730
I731
I732
I733
I734
I735
I736
I737
I738
I739
I740
I741
I742
I743
I744
I745
I746
I747
I748
I749
I750
I751
I752
I753
I754
I755
I756
I757
I758
I759
I760
I761
I762
I763
I764
I765
I766
I767
I768
I769
I770
I771
I772
I773
I774
I775
I776
I777
I778
I779
I780
I781
I782
I783
I784
I785
I786
I787
I788
I789
I790
I791
I792
I793
I794
I795
I796
I797
I798
I799
I800
I801
I802
I803
I804
I805
I806
I807
I808
I809
I810
I811
I812
I813
I814
I815
I816
I817
I818
I819
I820
I821
I822
I823
I824
I825
I826
I827
I828
I829
I830
I831
I832
I833
I834
I835
I836
I837
I838
I839
I840
I841
I842
I843
I844
I845
I846
I847
I848
I849
I850
I851
I852
I853
I854
I855
I856
I857
I858
I859
I860
I861
I862
I863
I864
I865
I866
I867
I868
I869
I870
I871
I872
I873
I874
I875
I876
I877
I878
I879
I880
I881
I882
I883
I884
I885
I886
I887
I888
I889
I890
I891
I892
I893
I894
I895
I896
I897
I898
I899
I900
I901
I902
I903
I904
I905
I906
I907
I908
I909
I910
I911
I912
I913
I914
I915
I916
I917
I918
I919
I920
I921
I922
I923
I924
I925
I926
I927
I928
I929
I930
I931
I932
I933
I934
I935
I936
I937
I938
I939
I940
I941
I942
I943
I944
I945
I946
I947
I948
I949
I950
I951
I952
I953
I954
I955
I956
I957
I958
I959
I960
I961
I962
I963
I964
I965
I966
I967
I968
I969
I970
I971
I972
I973
I974
I975
I976
I977
I978
I979
I980
I981
I982
I983
I984
I985
I986
I987
I988
I989
I990
I991
I992
I993
I994
I995
I996
I997
I998
I999
I1000
I1001
I1002
I1003
I1004
I1005
I1006
I1007
I1008
I1009
I1010
I1011
I1012
I1013
I1014
I1015
I1016
I1017
I1018
I1019
I1020
I1021
I1022
I1023
I1024
I1025
I1026
I1027
I1028
I1029
I1030
I1031
I1032
I1033
I1034
I1035
I1036
I1037
I1038
I1039
I1040
I1041
I1042
I1043
I1044
I1045
I1046
I1047
I1048
I1049
I1050
I1051
I1052
I1053
I1054
I1055
I1056
I1057
I1058
I1059
I1060
I1061
I1062
I1063
I1064
I1065
I1066
I1067
I1068
I1069
I1070
I1071
I1072
I1073
I1074
I1075
I1076
I1077
I1078
I1079
I1080
I1081
I1082
I1083
I1084
I1085
I1086
I1087
I1088
I1089
I1090
I1091
I1092
I1093
I1094
I1095
I1096
I1097
I1098
I1099
I1100
I1101
I1102
I1103
I1104
I1105
I1106
I1107
I1108
I1109
I1110
I1111
I1112
I1113
I1114
I1115
I1116
I1117
I1118
I1119
I1120
I1121
I1122
I1123
I1124
I1125
I1126
I1127
I1128
I1129
I1130
I1131
I1132
I1133
I1134
I1135
I1136
I1137
I1138
I1139
I1140
I1141
I1142
I1143
I1144
I1145
I1146
I1147
I1148
I1149
I1150
I1151
I1152
I1153
I1154
I1155
I1156
I1157
I1158
I1159
I1160
I1161
I1162
I1163
I1164
I1165
I1166
I1167
I1168
I1169
I1170
I1171
I1172
I1173
I1174
I1175
I1176
I1177
I1178
I1179
I1180
I1181
I1182
I1183
I1184
I1185
I1186
I1187
I1188
I1189
I1190
I1191
I1192
I1193
I1194
I1195
I1196
I1197
I1198
I1199
I1200
I1201
I1202
I1203
I1204
I1205
I1206
I1207
I1208
I1209
I1210
I1211
I1212
I1213
I1214
I1215
I1216
I1217
I1218
I1219
I1220
I1221
I1222
I1223
I1224
I1225
I1226
I1227
I1228
I1229
I1230
I1231
I1232
I1233
I1234
I1235
I1236
I1237
I1238
I1239
I1240
I1241
I1242
I1243
I1244
I1245
I1246
I1247
I1248
I1249
I1250
I1251
I1252
I1253
I1254
I1255
I1256
I1257
I1258
I1259
I1260
I1261
I1262
I1263
I1264
I1265
I1266
I1267
I1268
I1269
I1270
I1271
I1272
I1273
I1274
I1275
I1276
I1277
I1278
I1279
I1280
I1281
I1282
I1283
I1284
I1285
I1286
I1287
I1288
I1289
I1290
I1291
I1292
I1293
I1294
I1295
I1296
I1297
I1298
I1299
I1300
I1301
I1302
I1303
I1304
I1305
I1306
I1307
I1308
I1309
I1310
I1311
I1312
I1313
I1314
I1315
I1316
I1317
I1318
I1319
I1320
I1321
I1322
I1323
I1324
I1325
I1326
I1327
I1328
I1329
I1330
I1331
I1332
I1333
I1334
I1335
I1336
I1337
I1338
I1339
I1340
I1341
I1342
I1343
I1344
I1345
I1346
I1347
I1348
I1349
I1350
I1351
I1352
I1353
I1354
I1355
I1356
I1357
I1358
I1359
I1360
I1361
I1362
I1363
I1364
I1365
I1366
I1367
I1368
I1369
I1370
I1371
I1372
I1373
I1374
I1375
I1376
I1377
I1378
I1379
I1380
I1381
I1382
I1383
I1384
I1385
I1386
I1387
I1388
I1389
I1390
I1391
I1392
I1393
I1394
I1395
I1396
I1397
I1398
I1399
I1400
I1401
I1402
I1403
I1404
I1405
I1406
I1407
I1408
I1409
I1410
I1411
I1412
I1413
I1414
I1415
I1416
I1417
I1418
I1419
I1420
I1421
I1422
I1423
I1424
I1425
I1426
I1427
I1428
I1429
I1430
I1431
I1432
I1433
I1434
I1435
I1436
I1437
I1438
I1439
I1440
I1441
I1442
I1443
I1444
I1445
I1446
I1447
I1448
I1449
I1450
I1451
I1452
I1453
I1454
I1455
I1456
I1457
I1458
I1459
I1460
I1461
I1462
I1463
I1464
I1465
I1466
I1467
I1468
I1469
I1470
I1471
I1472
I1473
I1474
I1475
I1476
I1477
I1478
I1479
I1480
I1481
I1482
I1483
I1484
I1485
I1486
I1487
I1488
I1489
I1490
I1491
I1492
I1493
I1494
I1495
I1496
I1497
I1498
I1499
I1500
I1501
I1502
I1503
I1504
I1505
I1506
I1507
I1508
I1509
I1510
I1511
I1512
I1513
I1514
I1515
I1516
I1517
I1518
I1519
I1520
I1521
I1522
I1523
I1524
I1525
I1526
I1527
I1528
I1529
I1530
I1531
I1532
I1533
I1534
I1535
I1536
I1537
I1538
I1539
I1540
I1541
I1542
I1543
I1544
I1545
I1546
I1547
I1548
I1549
I1550
I1551
I1552
I1553
I1554
I1555
I1556
I1557
I1558
I1559
I1560
I1561
I1562
I1563
I1564
I1565
I1566
I1567
I1568
I1569
I1570
I1571
I1572
I1573
I1574
I1575
I1576
I1577
I1578
I1579
I1580
I1581
I1582
I1583
I1584
I1585
I1586
I1587
I1588
I1589
I1590
I1591
I1592
I1593
I1594
I1595
I1596
I1597
I1598
I1599
I1600
I1601
I1602
I1603
I1604
I1605
I1606
I1607
I1608
I1609
I1610
I1611
I1612
I1613
I1614
I1615
I1616
I1617
I1618
I1619
I1620
I1621
I1622
I1623
I1624
I1625
I1626
I1627
I1628
I1629
I1630
I1631
I1632
I1633
I1634
I1635
I1636
I1637
I1638
I1639
I1640
I1641
I1642
I1643
I1644
I1645
I1646
I1647
I1648
I1649
I1650
I1651
I1652
I1653
I1654
I1655
I1656
I1657
I1658
I1659
I1660
I1661
I1662
I1663
I1664
I1665
I1666
I1667
I1668
I1669
I1670
I1671
I1672
I1673
I1674
I1675
I1676
I1677
I1678
I1679
I1680
I1681
I1682
I1683
I1684
I1685
I1686
I1687
I1688
I1689
I1690
I1691
I1692
I1693
I1694
I1695
I1696
I1697
I1698
I1699
I1700
I1701
I1702
I1703
I1704
I1705
I1706
I1707
I1708
I1709
I1710
I1711
I1712
I1713
I1714
I1715
I1716
I1717
I1718
I1719
I1720
I1721
I1722
I1723
I1724
I1725
I1726
I1727
I1728
I1729
I1730
I1731
I1732
I1733
I1734
I1735
I1736
I1737
I1738
I1739
I1740
I1741
I1742
I1743
I1744
I1745
I1746
I1747
I1748
I1749
I1750
I1751
I1752
I1753
I1754
I1755
I1756
I1757
I1758
I1759
I1760
I1761
I1762
I1763
I1764
I1765
I1766
I1767
I1768
I1769
I1770
I1771
I1772
I1773
I1774
I1775
I1776
I1777
I1778
I1779
I1780
I1781
I1782
I1783
I1784
I1785
I1786
I1787
I1788
I1789
I1790
I1791
I1792
I1793
I1794
I1795
I1796
I1797
I1798
I1799
I1800
I1801
I1802
I1803
I1804
I1805
I1806
I1807
I1808
I1809
I1810
I1811
I1812
I1813
I1814
I1815
I1816
I1817
I1818
I1819
I1820
I1821
I1822
I1823
I1824
I1825
I1826
I1827
I1828
I1829
I1830
I1831
I1832
I1833
I1834
I1835
I1836
I1837
I1838
I1839
I1840
I1841
I1842
I1843
I1844
I1845
I1846
I1847
I1848
I1849
I1850
I1851
I1852
I1853
I1854
I1855
I1856
I1857
I1858
I1859
I1860
I1861
I1862
I1863
I1864
I1865
I1866
I1867
I1868
I1869
I1870
I1871
I1872
I1873
I1874
I1875
I1876
I1877
I1878
I1879
I1880
I1881
I1882
I1883
I1884
I1885
I1886
I1887
I1888
I1889
I1890
I1891
I1892
I1893
I1894
I1895
I1896
I1897
I1898
I1899
I1900
I1901
I1902
I1903
I1904
I1905
I1906
I1907
I1908
I1909
I1910
I1911
I1912
I1913
I1914
I1915
I1916
I1917
I1918
I1919
I1920
I1921
I1922
I1923
I1924
I1925
I1926
I1927
I1928
I1929
I1930
I1931
I1932
I1933
I1934
I1935
I1936
I1937
I1938
I1939
I1940
I1941
I1942
I1943
I1944
I1945
I1946
I1947
I1948
I1949
I1950
I1951
I1952
I1953
I1954
I1955
I1956
I1957
I1958
I1959
I1960
I1961
I1962
I1963
I1964
I1965
I1966
I1967
I1968
I1969
I1970
I1971
I1972
I1973
I1974
I1975
I1976
I1977
I1978
I1979
I1980
I1981
I1982
I1983
I1984
I1985
I1986
I1987
I1988
I1989
I1990
I1991
I1992
I1993
I1994
I1995
I1996
I1997
I1998
I1999
tp6
tp7
Rp8
ag1
((I1
I3
I9
I13
I17
I23
I25
I27
I31
I35
I37
I39
I47
I51
I53
I59
I61
I65
I69
I71
I73
I75
I77
I79
I81
I85
I89
I91
I93
I101
I105
I107
I109
I111
I117
I137
I141
I143
I153
I155
I159
I161
I167
I169
I173
I177
I179
I181
I183
I185
I187
I191
I195
I197
I207
I209
I213
I215
I217
I219
I221
I223
I225
I227
I231
I233
I235
I237
I239
I241
I243
I247
I251
I253
I255
I263
I267
I269
I271
I273
I279
I299
I303
I305
I315
I317
I321
I323
I325
I327
I333
I351
I365
I367
I373
I391
I407
I411
I413
I423
I425
I429
I431
I445
I459
I461
I465
I467
I477
I479
I483
I491
I493
I497
I501
I503
I505
I507
I509
I511
I515
I519
I521
I531
I533
I537
I539
I541
I543
I545
I547
I549
I551
I555
I557
I559
I561
I563
I565
I569
I573
I575
I585
I587
I591
I593
I607
I621
I623
I627
I629
I639
I641
I645
I649
I651
I653
I655
I657
I659
I663
I665
I667
I669
I671
I673
I675
I677
I681
I683
I693
I695
I699
I703
I705
I707
I709
I711
I713
I717
I721
I723
I729
I733
I737
I739
I741
I749
I753
I755
I757
I759
I765
I785
I789
I791
I801
I803
I807
I809
I811
I813
I819
I837
I851
I853
I859
I877
I893
I897
I899
I909
I911
I915
I917
I931
I945
I947
I951
I953
I963
I965
I969
I973
I975
I981
I999
I1013
I1015
I1021
I1039
I1053
I1067
I1069
I1075
I1085
I1087
I1091
I1095
I1097
I1099
I1101
I1103
I1105
I1111
I1117
I1119
I1121
I1123
I1129
I1147
I1165
I1171
I1173
I1175
I1177
I1183
I1201
I1217
I1221
I1223
I1233
I1235
I1239
I1241
I1255
I1269
I1271
I1275
I1277
I1287
I1289
I1293
I1309
I1327
I1333
I1335
I1337
I1339
I1345
I1363
I1377
I1379
I1383
I1385
I1395
I1397
I1401
I1417
I1431
I1433
I1437
I1449
I1457
I1463
I1465
I1469
I1473
I1475
I1477
I1479
I1481
I1483
I1487
I1491
I1493
I1503
I1505
I1509
I1511
I1513
I1515
I1517
I1519
I1521
I1523
I1527
I1529
I1531
I1533
I1535
I1537
I1541
I1545
I1547
I1557
I1559
I1563
I1565
I1579
I1593
I1595
I1599
I1601
I1611
I1613
I1617
I1621
I1623
I1625
I1627
I1629
I1631
I1635
I1637
I1639
I1641
I1643
I1645
I1647
I1649
I1653
I1655
I1665
I1667
I1671
I1675
I1677
I1679
I1681
I1683
I1685
I1689
I1693
I1695
I1703
I1707
I1709
I1719
I1721
I1725
I1727
I1741
I1755
I1757
I1761
I1763
I1773
I1775
I1779
I1795
I1813
I1819
I1821
I1823
I1825
I1831
I1849
I1863
I1865
I1869
I1871
I1881
I1883
I1887
I1903
I1917
I1919
I1923
I1935
I1943
I1945
I1947
I1949
I1951
I1953
I1955
I1959
I1961
I1963
I1965
I1967
I1969
I1971
I1973
I1977
I1979
I1989
I1991
I1995
I1999
tp9
tp10
Rp11
ag1
((I1
I2
I3
I4
I5
I6
I7
I8
I9
I10
I11
I12
I13
I14
I15
I16
I17
I18
I19
I20
I21
I22
I23
I24
I25
I26
I27
I28
I29
I30
I31
I32
I33
I34
I35
I36
I37
I38
I39
I40
I41
I42
I43
I44
I45
I46
I47
I48
I49
I50
I51
I52
I53
I54
I55
I56
I57
I58
I59
I60
I61
I62
I63
I64
I65
I66
I67
I68
I69
I70
I71
I72
I73
I74
I75
I76
I77
I78
I79
I80
I81
I82
I83
I84
I85
I86
I87
I88
I89
I90
I91
I92
I93
I94
I95
I96
I97
I98
I99
I100
I101
I102
I103
I104
I105
I106
I107
I108
I109
I110
I111
I112
I113
I114
I115
I116
I117
I118
I119
I120
I121
I122
I123
I124
I125
I126
I127
I128
I129
I130
I131
I132
I133
I134
I135
I136
I137
I138
I139
I140
I141
I142
I143
I144
I145
I146
I147
I148
I149
I150
I151
I152
I153
I154
I155
I156
I157
I158
I159
I160
I161
I162
I163
I164
I165
I166
I167
I168
I169
I170
I171
I172
I173
I174
I175
I176
I177
I178
I179
I180
I181
I182
I183
I184
I185
I186
I187
I188
I189
I190
I191
I192
I193
I194
I195
I196
I197
I198
I199
I200
I201
I202
I203
I204
I205
I206
I207
I208
I209
I210
I211
I212
I213
I214
I215
I216
I217
I218
I219
I220
I221
I222
I223
I224
I225
I226
I227
I228
I229
I230
I231
I232
I233
I234
I235
I236
I237
I238
I239
I240
I241
I242
I243
I244
I245
I246
I247
I248
I249
I250
I251
I252
I253
I254
I255
I256
I257
I258
I259
I260
I261
I262
I263
I264
I265
I266
I267
I268
I269
I270
I271
I272
I273
I274
I275
I276
I277
I278
I279
I280
I281
I282
I283
I284
I285
I286
I287
I288
I289
I290
I291
I292
I293
I294
I295
I296
I297
I298
I299
I300
I301
I302
I303
I304
I305
I306
I307
I308
I309
I310
I311
I312
I313
I314
I315
I316
I317
I318
I319
I320
I321
I322
I323
I324
I325
I326
I327
I328
I329
I330
I331
I332
I333
I334
I335
I336
I337
I338
I339
I340
I341
I342
I343
I344
I345
I346
I347
I348
I349
I350
I351
I352
I353
I354
I355
I356
I357
I358
I359
I360
I361
I362
I363
I364
I365
I366
I367
I368
I369
I370
I371
I372
I373
I374
I375
I376
I377
I378
I379
I380
I381
I382
I383
I384
I385
I386
I387
I388
I389
I390
I391
I392
I393
I394
I395
I396
I397
I398
I399
I400
I401
I402
I403
I404
I405
I406
I407
I408
I409
I410
I411
I412
I413
I414
I415
I416
I417
I418
I419
I420
I421
I422
I423
I424
I425
I426
I427
I428
I429
I430
I431
I432
I433
I434
I435
I436
I437
I438
I439
I440
I441
I442
I443
I444
I445
I446
I447
I448
I449
I450
I451
I452
I453
I454
I455
I456
I457
I458
I459
I460
I461
I462
I463
I464
I465
I466
I467
I468
I469
I470
I471
I472
I473
I474
I475
I476
I477
I478
I479
I480
I481
I482
I483
I484
I485
I486
I487
I488
I489
I490
I491
I492
I493
I494
I495
I496
I497
I498
I499
I500
I501
I502
I503
I504
I505
I506
I507
I508
I509
I510
I511
I512
I513
I514
I515
I516
I517
I518
I519
I520
I521
I522
I523
I524
I525
I526
I527
I528
I529
I530
I531
I532
I533
I534
I535
I536
I537
I538
I539
I540
I541
I542
I543
I544
I545
I546
I547
I548
I549
I550
I551
I552
I553
I554
I555
I556
I557
I558
I559
I560
I561
I562
I563
I564
I565
I566
I567
I568
I569
I570
I571
I572
I573
I574
I575
I576
I577
I578
I579
I580
I581
I582
I583
I584
I585
I586
I587
I588
I589
I590
I591
I592
I593
I594
I595
I596
I597
I598
I599
I600
I601
I602
I603
I604
I605
I606
I607
I608
I609
I610
I611
I612
I613
I614
I615
I616
I617
I618
I619
I620
I621
I622
I623
I624
I625
I626
I627
I628
I629
I630
I631
I632
I633
I634
I635
I636
I637
I638
I639
I640
I641
I642
I643
I644
I645
I646
I647
I648
I649
I650
I651
I652
I653
I654
I655
I656
I657
I658
I659
I660
I661
I662
I663
I664
I665
I666
I667
I668
I669
I670
I671
I672
I673
I674
I675
I676
I677
I678
I679
I680
I681
I682
I683
I684
I685
I686
I687
I688
I689
I690
I691
I692
I693
I694
I695
I696
I697
I698
I699
I700
I701
I702
I703
I704
I705
I706
I707
I708
I709
I710
I711
I712
I713
I714
I715
I716
I717
I718
I719
I720
I721
I722
I723
I724
I725
I726
I727
I728
I729
I730
I731
I732
I733
I734
I735
I736
I737
I738
I739
I740
I741
I742
I743
I744
I745
I746
I747
I748
I749
I750
I751
I752
I753
I754
I755
I756
I757
I758
I759
I760
I761
I762
I763
I764
I765
I766
I767
I768
I769
I770
I771
I772
I773
I774
I775
I776
I777
I778
I779
I780
I781
I782
I783
I784
I785
I786
I787
I788
I789
I790
I791
I792
I793
I794
I795
I796
I797
I798
I799
I800
I801
I802
I803
I804
I805
I806
I807
I808
I809
I810
I811
I812
I813
I814
I815
I816
I817
I818
I819
I820
I821
I822
I823
I824
I825
I826
I827
I828
I829
I830
I831
I832
I833
I834
I835
I836
I837
I838
I839
I840
I841
I842
I843
I844
I845
I846
I847
I848
I849
I850
I851
I852
I853
I854
I855
I856
I857
I858
I859
I860
I861
I862
I863
I864
I865
I866
I867
I868
I869
I870
I871
I872
I873
I874
I875
I876
I877
I878
I879
I880
I881
I882
I883
I884
I885
I886
I887
I888
I889
I890
I891
I892
I893
I894
I895
I896
I897
I898
I899
I900
I901
I902
I903
I904
I905
I906
I907
I908
I909
I910
I911
I912
I913
I914
I915
I916
I917
I918
I919
I920
I921
I922
I923
I924
I925
I926
I927
I928
I929
I930
I931
I932
I933
I934
I935
I936
I937
I938
I939
I940
I941
I942
I943
I944
I945
I946
I947
I948
I949
I950
I951
I952
I953
I954
I955
I956
I957
I958
I959
I960
I961
I962
I963
I964
I965
I966
I967
I968
I969
I970
I971
I972
I973
I974
I975
I976
I977
I978
I979
I980
I981
I982
I983
I984
I985
I986
I987
I988
I989
I990
I991
I992
I993
I994
I995
I996
I997
I998
I999
I1000
I1001
I1002
I1003
I1004
I1005
I1006
I1007
I1008
I1009
I1010
I1011
I1012
I1013
I1014
I1015
I1016
I1017
I1018
I1019
I1020
I1021
I1022
I1023
I1024
I1025
I1026
I1027
I1028
I1029
I1030
I1031
I1032
I1033
I1034
I1035
I1036
I1037
I1038
I1039
I1040
I1041
I1042
I1043
I1044
I1045
I1046
I1047
I1048
I1049
I1050
I1051
I1052
I1053
I1054
I1055
I1056
I1057
I1058
I1059
I1060
I1061
I1062
I1063
I1064
I1065
I1066
I1067
I1068
I1069
I1070
I1071
I1072
I1073
I1074
I1075
I1076
I1077
I1078
I1079
I1080
I1081
I1082
I1083
I1084
I1085
I1086
I1087
I1088
I1089
I1090
I1091
I1092
I1093
I1094
I1095
I1096
I1097
I1098
I1099
I1100
I1101
I1102
I1103
I1104
I1105
I1106
I1107
I1108
I1109
I1110
I1111
I1112
I1113
I1114
I1115
I1116
I1117
I1118
I1119
I1120
I1121
I1122
I1123
I1124
I1125
I1126
I1127
I1128
I1129
I1130
I1131
I1132
I1133
I1134
I1135
I1136
I1137
I1138
I1139
I1140
I1141
I1142
I1143
I1144
I1145
I1146
I1147
I1148
I1149
I1150
I1151
I1152
I1153
I1154
I1155
I1156
I1157
I1158
I1159
I1160
I1161
I1162
I1163
I1164
I1165
I1166
I1167
I1168
I1169
I1170
I1171
I1172
I1173
I1174
I1175
I1176
I1177
I1178
I1179
I1180
I1181
I1182
I1183
I1184
I1185
I1186
I1187
I1188
I1189
I1190
I1191
I1192
I1193
I1194
I1195
I1196
I1197
I1198
I1199
I1200
I1201
I1202
I1203
I1204
I1205
I1206
I1207
I1208
I1209
I1210
I1211
I1212
I1213
I1214
I1215
I1216
I1217
I1218
I1219
I1220
I1221
I1222
I1223
I1224
I1225
I1226
I1227
I1228
I1229
I1230
I1231
I1232
I1233
I1234
I1235
I1236
I1237
I1238
I1239
I1240
I1241
I1242
I1243
I1244
I1245
I1246
I1247
I1248
I1249
I1250
I1251
I1252
I1253
I1254
I1255
I1256
I1257
I1258
I1259
I1260
I1261
I1262
I1263
I1264
I1265
I1266
I1267
I1268
I1269
I1270
I1271
I1272
I1273
I1274
I1275
I1276
I1277
I1278
I1279
I1280
I1281
I1282
I1283
I1284
I1285
I1286
I1287
I1288
I1289
I1290
I1291
I1292
I1293
I1294
I1295
I1296
I1297
I1298
I1299
I1300
I1301
I1302
I1303
I1304
I1305
I1306
I1307
I1308
I1309
I1310
I1311
I1312
I1313
I1314
I1315
I1316
I1317
I1318
I1319
I1320
I1321
I1322
I1323
I1324
I1325
I1326
I1327
I1328
I1329
I1330
I1331
I1332
I1333
I1334
I1335
I1336
I1337
I1338
I1339
I1340
I1341
I1342
I1343
I1344
I1345
I1346
I1347
I1348
I1349
I1350
I1351
I1352
I1353
I1354
I1355
I1356
I1357
I1358
I1359
I1360
I1361
I1362
I1363
I1364
I1365
I1366
I1367
I1368
I1369
I1370
I1371
I1372
I1373
I1374
I1375
I1376
I1377
I1378
I1379
I1380
I1381
I1382
I1383
I1384
I1385
I1386
I1387
I1388
I1389
I1390
I1391
I1392
I1393
I1394
I1395
I1396
I1397
I1398
I1399
I1400
I1401
I1402
I1403
I1404
I1405
I1406
I1407
I1408
I1409
I1410
I1411
I1412
I1413
I1414
I1415
I1416
I1417
I1418
I1419
I1420
I1421
I1422
I1423
I1424
I1425
I1426
I1427
I1428
I1429
I1430
I1431
I1432
I1433
I1434
I1435
I1436
I1437
I1438
I1439
I1440
I1441
I1442
I1443
I1444
I1445
I1446
I1447
I1448
I1449
I1450
I1451
I1452
I1453
I1454
I1455
I1456
I1457
I1458
I1459
I1460
I1461
I1462
I1463
I1464
I1465
I1466
I1467
I1468
I1469
I1470
I1471
I1472
I1473
I1474
I1475
I1476
I1477
I1478
I1479
I1480
I1481
I1482
I1483
I1484
I1485
I1486
I1487
I1488
I1489
I1490
I1491
I1492
I1493
I1494
I1495
I1496
I1497
I1498
I1499
I1500
I1501
I1502
I1503
I1504
I1505
I1506
I1507
I1508
I1509
I1510
I1511
I1512
I1513
I1514
I1515
I1516
I1517
I1518
I1519
I1520
I1521
I1522
I1523
I1524
I1525
I1526
I1527
I1528
I1529
I1530
I1531
I1532
I1533
I1534
I1535
I1536
I1537
I1538
I1539
I1540
I1541
I1542
I1543
I1544
I1545
I1546
I1547
I1548
I1549
I1550
I1551
I1552
I1553
I1554
I1555
I1556
I1557
I1558
I1559
I1560
I1561
I1562
I1563
I1564
I1565
I1566
I1567
I1568
I1569
I1570
I1571
I1572
I1573
I1574
I1575
I1576
I1577
I1578
I1579
I1580
I1581
I1582
I1583
I1584
I1585
I1586
I1587
I1588
I1589
I1590
I1591
I1592
I1593
I1594
I1595
I1596
I1597
I1598
I1599
I1600
I1601
I1602
I1603
I1604
I1605
I1606
I1607
I1608
I1609
I1610
I1611
I1612
I1613
I1614
I1615
I1616
I1617
I1618
I1619
I1620
I1621
I1622
I1623
I1624
I1625
I1626
I1627
I1628
I1629
I1630
I1631
I1632
I1633
I1634
I1635
I1636
I1637
I1638
I1639
I1640
I1641
I1642
I1643
I1644
I1645
I1646
I1647
I1648
I1649
I1650
I1651
I1652
I1653
I1654
I1655
I1656
I1657
I1658
I1659
I1660
I1661
I1662
I1663
I1664
I1665
I1666
I1667
I1668
I1669
I1670
I1671
I1672
I1673
I1674
I1675
I1676
I1677
I1678
I1679
I1680
I1681
I1682
I1683
I1684
I1685
I1686
I1687
I1688
I1689
I1690
I1691
I1692
I1693
I1694
I1695
I1696
I1697
I1698
I1699
I1700
I1701
I1702
I1703
I1704
I1705
I1706
I1707
I1708
I1709
I1710
I1711
I1712
I1713
I1714
I1715
I1716
I1717
I1718
I1719
I1720
I1721
I1722
I1723
I1724
I1725
I1726
I1727
I1728
I1729
I1730
I1731
I1732
I1733
I1734
I1735
I1736
I1737
I1738
I1739
I1740
I1741
I1742
I1743
I1744
I1745
I1746
I1747
I1748
I1749
I1750
I1751
I1752
I1753
I1754
I1755
I1756
I1757
I1758
I1759
I1760
I1761
I1762
I1763
I1764
I1765
I1766
I1767
I1768
I1769
I1770
I1771
I1772
I1773
I1774
I1775
I1776
I1777
I1778
I1779
I1780
I1781
I1782
I1783
I1784
I1785
I1786
I1787
I1788
I1789
I1790
I1791
I1792
I1793
I1794
I1795
I1796
I1797
I1798
I1799
I1800
I1801
I1802
I1803
I1804
I1805
I1806
I1807
I1808
I1809
I1810
I1811
I1812
I1813
I1814
I1815
I1816
I1817
I1818
I1819
I1820
I1821
I1822
I1823
I1824
I1825
I1826
I1827
I1828
I1829
I1830
I1831
I1832
I1833
I1834
I1835
I1836
I1837
I1838
I1839
I1840
I1841
I1842
I1843
I1844
I1845
I1846
I1847
I1848
I1849
I1850
I1851
I1852
I1853
I1854
I1855
I1856
I1857
I1858
I1859
I1860
I1861
I1862
I1863
I1864
I1865
I1866
I1867
I1868
I1869
I1870
I1871
I1872
I1873
I1874
I1875
I1876
I1877
I1878
I1879
I1880
I1881
I1882
I1883
I1884
I1885
I1886
I1887
I1888
I1889
I1890
I1891
I1892
I1893
I1894
I1895
I1896
I1897
I1898
I1899
I1900
I1901
I1902
I1903
I1904
I1905
I1906
I1907
I1908
I1909
I1910
I1911
I1912
I1913
I1914
I1915
I1916
I1917
I1918
I1919
I1920
I1921
I1922
I1923
I1924
I1925
I1926
I1927
I1928
I1929
I1930
I1931
I1932
I1933
I1934
I1935
I1936
I1937
I1938
I1939
I1940
I1941
I1942
I1943
I1944
I1945
I1946
I1947
I1948
I1949
I1950
I1951
I1952
I1953
I1954
I1955
I1956
I1957
I1958
I1959
I1960
I1961
I1962
I1963
I1964
I1965
I1966
I1967
I1968
I1969
I1970
I1971
I1972
I1973
I1974
I1975
I1976
I1977
I1978
I1979
I1980
I1981
I1982
I1983
I1984
I1985
I1986
I1987
I1988
I1989
I1990
I1991
I1992
I1993
I1994
I1995
I1996
I1997
I1998
I1999
tp12
tp13
Rp14
ag1
((I1
I5
I7
I11
I19
I23
I25
I27
I33
I35
I41
I43
I49
I51
I55
I79
I81
I83
I91
I93
I95
I99
I103
I109
I115
I119
I121
I123
I125
I127
I133
I135
I141
I143
I149
I153
I157
I159
I161
I165
I169
I171
I173
I175
I181
I189
I193
I197
I201
I203
I205
I209
I213
I215
I217
I219
I221
I223
I229
I231
I233
I237
I241
I243
I245
I249
I251
I255
I275
I281
I289
I293
I297
I309
I319
I321
I323
I333
I339
I341
I347
I357
I361
I363
I367
I379
I381
I383
I391
I393
I395
I399
I401
I403
I405
I409
I413
I415
I417
I419
I421
I423
I433
I439
I441
I447
I451
I453
I455
I457
I459
I461
I465
I469
I471
I473
I475
I479
I481
I483
I487
I491
I493
I495
I503
I509
I515
I519
I521
I523
I529
I531
I533
I537
I541
I543
I545
I549
I557
I561
I563
I567
I575
I579
I581
I583
I587
I591
I593
I595
I601
I603
I605
I609
I615
I621
I625
I627
I633
I635
I641
I643
I649
I653
I657
I659
I661
I665
I669
I671
I673
I675
I681
I689
I693
I697
I701
I703
I705
I709
I713
I715
I717
I719
I721
I723
I729
I731
I733
I737
I741
I743
I745
I749
I753
I757
I759
I761
I765
I769
I771
I773
I777
I779
I781
I785
I787
I789
I795
I797
I799
I801
I805
I807
I809
I811
I813
I817
I821
I825
I829
I837
I845
I849
I851
I853
I855
I857
I859
I861
I865
I869
I871
I873
I875
I881
I889
I893
I897
I901
I905
I907
I909
I911
I913
I917
I921
I929
I931
I933
I941
I943
I945
I949
I953
I957
I961
I963
I965
I967
I977
I981
I985
I989
I997
I1001
I1003
I1005
I1009
I1013
I1015
I1017
I1019
I1021
I1023
I1025
I1029
I1037
I1045
I1049
I1053
I1057
I1061
I1063
I1065
I1067
I1075
I1077
I1079
I1085
I1087
I1095
I1099
I1101
I1103
I1105
I1109
I1115
I1119
I1121
I1123
I1129
I1131
I1133
I1137
I1141
I1143
I1145
I1149
I1151
I1153
I1155
I1157
I1159
I1161
I1165
I1169
I1171
I1173
I1177
I1181
I1185
I1189
I1197
I1201
I1203
I1205
I1209
I1215
I1219
I1221
I1223
I1225
I1229
I1231
I1233
I1237
I1241
I1243
I1245
I1251
I1255
I1275
I1281
I1289
I1293
I1297
I1309
I1319
I1321
I1323
I1333
I1339
I1341
I1347
I1357
I1361
I1363
I1367
I1375
I1381
I1389
I1393
I1397
I1401
I1405
I1407
I1409
I1411
I1413
I1417
I1421
I1429
I1431
I1433
I1441
I1443
I1445
I1449
I1453
I1457
I1461
I1463
I1465
I1467
I1477
I1481
I1485
I1489
I1497
I1509
I1519
I1521
I1523
I1529
I1531
I1533
I1541
I1543
I1545
I1549
I1563
I1567
I1579
I1581
I1583
I1587
I1591
I1593
I1595
I1599
I1601
I1603
I1605
I1609
I1615
I1619
I1621
I1623
I1633
I1639
I1641
I1647
I1653
I1657
I1661
I1663
I1665
I1667
I1679
I1681
I1683
I1687
I1691
I1693
I1695
I1699
I1701
I1705
I1707
I1711
I1713
I1717
I1727
I1735
I1739
I1747
I1757
I1761
I1763
I1767
I1777
I1781
I1785
I1789
I1797
I1801
I1803
I1805
I1809
I1815
I1819
I1821
I1823
I1827
I1835
I1839
I1847
I1857
I1861
I1863
I1867
I1879
I1881
I1883
I1891
I1893
I1895
I1899
I1901
I1903
I1905
I1909
I1913
I1915
I1917
I1919
I1921
I1923
I1933
I1939
I1941
I1947
I1951
I1953
I1955
I1957
I1959
I1961
I1965
I1969
I1971
I1973
I1975
I1979
I1981
I1983
I1987
I1991
I1993
I1995
tp15
tp16
Rp17
ag1
((I1
I6
I1033
I533
I538
I1058
I36
I1577
I44
I1582
I1584
I49
I1545
I580
I1207
I79
I593
I1977
I600
I1625
I608
I100
I1125
I1642
I1135
I1137
I1650
I787
I628
I638
I1667
I647
I1677
I1168
I1687
I1178
I1647
I1695
I160
I1187
I1702
I170
I1195
I1197
I1710
I1309
I1717
I695
I1729
I707
I1734
I715
I717
I1238
I216
I224
I1764
I229
I1277
I254
I767
I264
I777
I1292
I1295
I1296
I275
I1304
I285
I289
I294
I1334
I1344
I835
I837
I1355
I335
I1365
I1369
I347
I1374
I355
I357
I880
I890
I388
I1415
I1427
I405
I1435
I1437
I415
I928
I417
I1955
I940
I1967
I1975
I439
I953
I1468
I960
I1985
I968
I460
I1485
I469
I1495
I1497
I474
I847
I1514
I1010
I1524
I1018
I1020
I1535
tp18
tp19
Rp20
ag1
((I1
I901
I7
I919
I143
I401
I1927
I407
I1049
I167
I1169
I1579
I1325
I817
I1843
I949
I823
I1337
I571
I317
I191
I449
I961
I49
I839
I713
I311
I1489
I983
I343
I731
I1633
I1507
I1073
I743
I1001
I875
I1133
I1597
I1831
I1453
I125
tp21
tp22
Rp23
ag1
((I512
I1
I1026
I1539
I8
I524
I525
I1040
I18
I1560
I27
I545
I553
I434
I1078
I1801
I64
I580
I581
I1633
I1612
I77
I1618
I1107
I1114
I604
I608
I97
I611
I616
I105
I623
I1142
I637
I1152
I130
I1674
I1163
I144
I1681
I659
I1177
I666
I1563
I182
I1728
I195
I1226
I716
I1233
I722
I216
I219
I1759
I737
I1787
I769
I776
I265
I779
I1752
I1731
I793
I1830
I302
I1844
I309
I1846
I1335
I1342
I833
I840
I329
I847
I358
I877
I694
I372
I374
I889
I406
I1414
I1422
I918
I1956
I421
I1958
I1447
I428
I430
I1456
I1457
I946
I1972
I437
I1975
I1468
I1982
I76
I973
I1510
I1001
I1524
tp24
tp25
Rp26
ag1
((I1
I3
I1541
I519
I1033
I685
I1041
I1557
I27
I543
I1061
I553
I775
I559
I563
I9
I1081
I95
I609
I1105
I1621
I91
I1629
I607
I1121
I101
I529
I1135
I625
I1143
I1727
I125
I1151
I143
I661
I663
I1177
I1391
I157
I159
I539
I173
I1201
I181
I1207
I699
I703
I707
I1223
I1933
I1655
I729
I1249
I739
I743
I749
I1775
I243
I1065
I127
I1281
I773
I1287
I273
I791
I303
I805
I807
I1833
I811
I815
I1329
I819
I1337
I1345
I841
I909
I849
I341
I855
I863
I1921
I1381
I1383
I367
I1905
I887
I893
I385
I1923
I1413
I391
I393
I1943
I397
I1423
I1431
I415
I1353
I1695
I1469
I1985
I1477
I1993
I1995
I467
I985
I483
I81
I1009
I503
I1841
I1125
tp27
tp28
Rp29
ag1
((I1
I1029
I1030
I7
I1033
I10
I1330
I13
I1039
I1880
I19
I1557
I23
I536
I28
I1808
I31
I32
I700
I1572
I1574
I1575
I1578
I1067
I556
I1581
I1582
I49
I563
I1076
I565
I566
I1599
I1088
I1090
I1547
I68
I1093
I70
I1121
I1670
I1281
I79
I1929
I1976
I82
I86
I1844
I1112
I1636
I1114
I91
I94
I608
I97
I1122
I100
I1125
I103
I1128
I617
I109
I622
I623
I1521
I1141
I632
I1812
I1177
I635
I1148
I637
I638
I1151
I1152
I129
I130
I644
I133
I1158
I649
I139
I653
I655
I656
I1902
I665
I1903
I1733
I1727
I1182
I671
I1184
I673
I1092
I1188
I167
I680
I1706
I683
I1512
I1821
I176
I1847
I1717
I694
I1209
I1745
I1211
I188
I1725
I190
I1215
I192
I193
I874
I1995
I709
I1222
I1933
I203
I716
I1742
I208
I888
I1115
I1748
I1752
I1754
I219
I1760
I1758
I1247
I736
I1744
I226
I739
I230
I1233
I1218
I1257
I1258
I1771
I236
I239
I1815
I1784
I761
I1274
I763
I1277
I1212
I1796
I1285
I262
I263
I1288
I44
I1290
I1666
I784
I1299
I1300
I790
I1303
I280
I793
I1818
I1663
I1309
I1825
I802
I291
I1828
I293
I806
I1841
I1323
I301
I302
I904
I818
I1587
I820
I1333
I310
I1335
I313
I1339
I1852
I1930
I319
I320
I833
I1221
I836
I326
I329
I331
I847
I1724
I338
I1251
I1366
I1337
I1857
I1881
I1882
I1679
I860
I1373
I863
I1888
I1851
I356
I1332
I362
I1511
I1900
I365
I1390
I367
I368
I881
I1769
I376
I379
I1697
I1920
I383
I1755
I386
I899
I901
I391
I392
I748
I1418
I907
I1411
I397
I910
I912
I913
I1427
I404
I921
I409
I923
I931
I932
I1447
I1448
I937
I1607
I940
I1967
I1457
I946
I1353
I440
I446
I1472
I1474
I1475
I964
I1478
I1185
I1992
I1481
I970
I1814
I1484
I973
I1487
I464
I469
I1785
I1959
I1444
I989
I478
I1393
I1275
I1772
I998
I487
I1000
I490
I1003
I1874
I1518
I496
I1009
I1875
I1527
I1528
I1533
tp30
tp31
Rp32
a.